target datalayout = "e-m:e-p270:32:32-p271:32:32-p272:64:64-i64:64-i128:128-f80:128-n8:16:32:64-S128"
target triple = "x86_64-pc-linux-gnu"

@.str.358 = private unnamed_addr constant [3 x i8] c"On\00", align 1
@.str.360 = private unnamed_addr constant [46 x i8] c"../cpython/Modules/_testlimitedcapi/unicode.c\00", align 1
@.str.375 = private unnamed_addr constant [11 x i8] c"size == -1\00", align 1
@__PRETTY_FUNCTION__.unicode_asutf8andsize = private unnamed_addr constant [56 x i8] c"PyObject *unicode_asutf8andsize(PyObject *, PyObject *)\00", align 1
@.str.376 = private unnamed_addr constant [6 x i8] c"(y#n)\00", align 1

; Function Attrs: nounwind uwtable
define internal ptr @unicode_asutf8andsize(ptr noundef %0, ptr noundef %1) #0 {
  %3 = alloca ptr, align 8
  %4 = alloca ptr, align 8
  %5 = alloca ptr, align 8
  %6 = alloca ptr, align 8
  %7 = alloca i64, align 8
  %8 = alloca ptr, align 8
  %9 = alloca i64, align 8
  %10 = alloca i32, align 4
  store ptr %0, ptr %4, align 8, !tbaa !3
  store ptr %1, ptr %5, align 8, !tbaa !3
  call void @llvm.lifetime.start.p0(i64 8, ptr %6) #7
  call void @llvm.lifetime.start.p0(i64 8, ptr %7) #7
  call void @llvm.lifetime.start.p0(i64 8, ptr %8) #7
  call void @llvm.lifetime.start.p0(i64 8, ptr %9) #7
  store i64 236892191, ptr %9, align 8, !tbaa !12
  %11 = load ptr, ptr %5, align 8, !tbaa !3
  %12 = call i32 (ptr, ptr, ...) @PyArg_ParseTuple(ptr noundef %11, ptr noundef @.str.358, ptr noundef %6, ptr noundef %7)
  %13 = icmp ne i32 %12, 0
  br i1 %13, label %15, label %14

14:                                               ; preds = %2
  store ptr null, ptr %3, align 8
  store i32 1, ptr %10, align 4
  br label %40

15:                                               ; preds = %2
  br label %16

16:                                               ; preds = %15
  %17 = load ptr, ptr %6, align 8, !tbaa !3
  %18 = call ptr @Py_GetConstantBorrowed(i32 noundef 0)
  %19 = icmp eq ptr %17, %18
  br i1 %19, label %20, label %21

20:                                               ; preds = %16
  store ptr null, ptr %6, align 8, !tbaa !3
  br label %21

21:                                               ; preds = %20, %16
  br label %22

22:                                               ; preds = %21
  br label %23

23:                                               ; preds = %22
  %24 = load ptr, ptr %6, align 8, !tbaa !3
  %25 = call ptr @PyUnicode_AsUTF8AndSize(ptr noundef %24, ptr noundef %9)
  store ptr %25, ptr %8, align 8, !tbaa !8
  %26 = load ptr, ptr %8, align 8, !tbaa !8
  %27 = icmp eq ptr %26, null
  br i1 %27, label %28, label %35

28:                                               ; preds = %23
  %29 = load i64, ptr %9, align 8, !tbaa !12
  %30 = icmp eq i64 %29, -1
  br i1 %30, label %31, label %32

31:                                               ; preds = %28
  br label %34

32:                                               ; preds = %28
  call void @__assert_fail(ptr noundef @.str.375, ptr noundef @.str.360, i32 noundef 504, ptr noundef @__PRETTY_FUNCTION__.unicode_asutf8andsize) #8
  unreachable

33:                                               ; No predecessors!
  br label %34

34:                                               ; preds = %33, %31
  store ptr null, ptr %3, align 8
  store i32 1, ptr %10, align 4
  br label %40

35:                                               ; preds = %23
  %36 = load ptr, ptr %8, align 8, !tbaa !8
  %37 = load i64, ptr %7, align 8, !tbaa !12
  %38 = load i64, ptr %9, align 8, !tbaa !12
  %39 = call ptr (ptr, ...) @Py_BuildValue(ptr noundef @.str.376, ptr noundef %36, i64 noundef %37, i64 noundef %38)
  store ptr %39, ptr %3, align 8
  store i32 1, ptr %10, align 4
  br label %40

40:                                               ; preds = %35, %34, %14
  call void @llvm.lifetime.end.p0(i64 8, ptr %9) #7
  call void @llvm.lifetime.end.p0(i64 8, ptr %8) #7
  call void @llvm.lifetime.end.p0(i64 8, ptr %7) #7
  call void @llvm.lifetime.end.p0(i64 8, ptr %6) #7
  %41 = load ptr, ptr %3, align 8
  ret ptr %41
}