; Function Attrs: nounwind uwtable
define internal ptr @unicode_asutf8andsize(ptr readnone captures(none) %0, ptr noundef %1) #0 {
  %3 = alloca ptr, align 8
  %4 = alloca i64, align 8
  %5 = alloca i64, align 8
  call void @llvm.lifetime.start.p0(i64 8, ptr nonnull %3) #4
  call void @llvm.lifetime.start.p0(i64 8, ptr nonnull %4) #4
  call void @llvm.lifetime.start.p0(i64 8, ptr nonnull %5) #4
  store i64 236892191, ptr %5, align 8, !tbaa !10
  %6 = call i32 (ptr, ptr, ...) @PyArg_ParseTuple(ptr noundef %1, ptr noundef nonnull @.str.358, ptr noundef nonnull %3, ptr noundef nonnull %4) #4
  %.not = icmp eq i32 %6, 0
  br i1 %.not, label %24, label %7

7:                                                ; preds = %2
  %8 = load ptr, ptr %3, align 8, !tbaa !8
  %9 = call ptr @Py_GetConstantBorrowed(i32 noundef 0) #4
  %10 = icmp eq ptr %8, %9
  br i1 %10, label %11, label %._crit_edge

._crit_edge:                                      ; preds = %7
  %.pre = load ptr, ptr %3, align 8, !tbaa !8
  br label %12

11:                                               ; preds = %7
  store ptr null, ptr %3, align 8, !tbaa !8
  br label %12

12:                                               ; preds = %._crit_edge, %11
  %13 = phi ptr [ %.pre, %._crit_edge ], [ null, %11 ]
  %14 = call ptr @PyUnicode_AsUTF8AndSize(ptr noundef %13, ptr noundef nonnull %5) #4
  %15 = icmp eq ptr %14, null
  br i1 %15, label %16, label %20

16:                                               ; preds = %12
  %17 = load i64, ptr %5, align 8, !tbaa !10
  %18 = icmp eq i64 %17, -1
  br i1 %18, label %24, label %19

19:                                               ; preds = %16
  call void @__assert_fail(ptr noundef nonnull @.str.375, ptr noundef nonnull @.str.360, i32 noundef 504, ptr noundef nonnull @__PRETTY_FUNCTION__.unicode_asutf8andsize) #5
  unreachable

20:                                               ; preds = %12
  %21 = load i64, ptr %4, align 8, !tbaa !10
  %22 = load i64, ptr %5, align 8, !tbaa !10
  %23 = call ptr (ptr, ...) @Py_BuildValue(ptr noundef nonnull @.str.376, ptr noundef nonnull %14, i64 noundef %21, i64 noundef %22) #4
  br label %24

24:                                               ; preds = %16, %2, %20
  %.0 = phi ptr [ %23, %20 ], [ null, %2 ], [ null, %16 ]
  call void @llvm.lifetime.end.p0(i64 8, ptr nonnull %5) #4
  call void @llvm.lifetime.end.p0(i64 8, ptr nonnull %4) #4
  call void @llvm.lifetime.end.p0(i64 8, ptr nonnull %3) #4
  ret ptr %.0
}